; Function Attrs: nounwind uwtable
define ptr @l_Lean_Elab_Tactic_BVDecide_Frontend_Normalize_typeAnalysisPass_analyzeConst(ptr noundef %0, ptr noundef %1, ptr noundef %2, ptr noundef %3, ptr noundef %4, ptr noundef %5, ptr noundef %6, ptr noundef %7) local_unnamed_addr #1 {
  %9 = load ptr, ptr @l_Lean_Elab_Tactic_BVDecide_Frontend_Normalize_builtinTypes, align 8, !tbaa !4
  %10 = tail call zeroext i8 @l_Array_contains___at_Lean_registerInternalExceptionId___spec__1(ptr noundef %9, ptr noundef %0) #4
  %11 = icmp eq i8 %10, 0
  br i1 %11, label %12, label %14

12:                                               ; preds = %8
  %13 = tail call ptr @l_Lean_Elab_Tactic_BVDecide_Frontend_Normalize_typeAnalysisPass_analyzeConst___lambda__2(ptr noundef %0, ptr nonnull poison, ptr noundef %1, ptr noundef %2, ptr noundef %3, ptr noundef %4, ptr noundef %5, ptr noundef %6, ptr noundef %7)
  br label %84

14:                                               ; preds = %8
  %15 = ptrtoint ptr %6 to i64
  %16 = and i64 %15, 1
  %.not = icmp eq i64 %16, 0
  br i1 %.not, label %17, label %lean_dec.exit31

17:                                               ; preds = %14
  %18 = load i32, ptr %6, align 4, !tbaa !8
  %19 = icmp sgt i32 %18, 1
  br i1 %19, label %20, label %22, !prof !11

20:                                               ; preds = %17
  %21 = add nsw i32 %18, -1
  store i32 %21, ptr %6, align 4, !tbaa !8
  br label %lean_dec.exit31

22:                                               ; preds = %17
  %.not.i = icmp eq i32 %18, 0
  br i1 %.not.i, label %lean_dec.exit31, label %23

23:                                               ; preds = %22
  tail call void @lean_dec_ref_cold(ptr noundef nonnull %6) #4
  br label %lean_dec.exit31

lean_dec.exit31:                                  ; preds = %23, %22, %20, %14
  %24 = ptrtoint ptr %5 to i64
  %25 = and i64 %24, 1
  %.not44 = icmp eq i64 %25, 0
  br i1 %.not44, label %26, label %lean_dec.exit30

26:                                               ; preds = %lean_dec.exit31
  %27 = load i32, ptr %5, align 4, !tbaa !8
  %28 = icmp sgt i32 %27, 1
  br i1 %28, label %29, label %31, !prof !11

29:                                               ; preds = %26
  %30 = add nsw i32 %27, -1
  store i32 %30, ptr %5, align 4, !tbaa !8
  br label %lean_dec.exit30

31:                                               ; preds = %26
  %.not.i32 = icmp eq i32 %27, 0
  br i1 %.not.i32, label %lean_dec.exit30, label %32

32:                                               ; preds = %31
  tail call void @lean_dec_ref_cold(ptr noundef nonnull %5) #4
  br label %lean_dec.exit30

lean_dec.exit30:                                  ; preds = %32, %31, %29, %lean_dec.exit31
  %33 = ptrtoint ptr %4 to i64
  %34 = and i64 %33, 1
  %.not45 = icmp eq i64 %34, 0
  br i1 %.not45, label %35, label %lean_dec.exit29

35:                                               ; preds = %lean_dec.exit30
  %36 = load i32, ptr %4, align 4, !tbaa !8
  %37 = icmp sgt i32 %36, 1
  br i1 %37, label %38, label %40, !prof !11

38:                                               ; preds = %35
  %39 = add nsw i32 %36, -1
  store i32 %39, ptr %4, align 4, !tbaa !8
  br label %lean_dec.exit29

40:                                               ; preds = %35
  %.not.i34 = icmp eq i32 %36, 0
  br i1 %.not.i34, label %lean_dec.exit29, label %41

41:                                               ; preds = %40
  tail call void @lean_dec_ref_cold(ptr noundef nonnull %4) #4
  br label %lean_dec.exit29

lean_dec.exit29:                                  ; preds = %41, %40, %38, %lean_dec.exit30
  %42 = ptrtoint ptr %3 to i64
  %43 = and i64 %42, 1
  %.not46 = icmp eq i64 %43, 0
  br i1 %.not46, label %44, label %lean_dec.exit28

44:                                               ; preds = %lean_dec.exit29
  %45 = load i32, ptr %3, align 4, !tbaa !8
  %46 = icmp sgt i32 %45, 1
  br i1 %46, label %47, label %49, !prof !11

47:                                               ; preds = %44
  %48 = add nsw i32 %45, -1
  store i32 %48, ptr %3, align 4, !tbaa !8
  br label %lean_dec.exit28

49:                                               ; preds = %44
  %.not.i36 = icmp eq i32 %45, 0
  br i1 %.not.i36, label %lean_dec.exit28, label %50

50:                                               ; preds = %49
  tail call void @lean_dec_ref_cold(ptr noundef nonnull %3) #4
  br label %lean_dec.exit28

lean_dec.exit28:                                  ; preds = %50, %49, %47, %lean_dec.exit29
  %51 = ptrtoint ptr %2 to i64
  %52 = and i64 %51, 1
  %.not47 = icmp eq i64 %52, 0
  br i1 %.not47, label %53, label %lean_dec.exit27

53:                                               ; preds = %lean_dec.exit28
  %54 = load i32, ptr %2, align 4, !tbaa !8
  %55 = icmp sgt i32 %54, 1
  br i1 %55, label %56, label %58, !prof !11

56:                                               ; preds = %53
  %57 = add nsw i32 %54, -1
  store i32 %57, ptr %2, align 4, !tbaa !8
  br label %lean_dec.exit27

58:                                               ; preds = %53
  %.not.i38 = icmp eq i32 %54, 0
  br i1 %.not.i38, label %lean_dec.exit27, label %59

59:                                               ; preds = %58
  tail call void @lean_dec_ref_cold(ptr noundef nonnull %2) #4
  br label %lean_dec.exit27

lean_dec.exit27:                                  ; preds = %59, %58, %56, %lean_dec.exit28
  %60 = ptrtoint ptr %1 to i64
  %61 = and i64 %60, 1
  %.not48 = icmp eq i64 %61, 0
  br i1 %.not48, label %62, label %lean_dec.exit26

62:                                               ; preds = %lean_dec.exit27
  %63 = load i32, ptr %1, align 4, !tbaa !8
  %64 = icmp sgt i32 %63, 1
  br i1 %64, label %65, label %67, !prof !11

65:                                               ; preds = %62
  %66 = add nsw i32 %63, -1
  store i32 %66, ptr %1, align 4, !tbaa !8
  br label %lean_dec.exit26

67:                                               ; preds = %62
  %.not.i40 = icmp eq i32 %63, 0
  br i1 %.not.i40, label %lean_dec.exit26, label %68

68:                                               ; preds = %67
  tail call void @lean_dec_ref_cold(ptr noundef nonnull %1) #4
  br label %lean_dec.exit26

lean_dec.exit26:                                  ; preds = %68, %67, %65, %lean_dec.exit27
  %69 = ptrtoint ptr %0 to i64
  %70 = and i64 %69, 1
  %.not49 = icmp eq i64 %70, 0
  br i1 %.not49, label %71, label %lean_dec.exit

71:                                               ; preds = %lean_dec.exit26
  %72 = load i32, ptr %0, align 4, !tbaa !8
  %73 = icmp sgt i32 %72, 1
  br i1 %73, label %74, label %76, !prof !11

74:                                               ; preds = %71
  %75 = add nsw i32 %72, -1
  store i32 %75, ptr %0, align 4, !tbaa !8
  br label %lean_dec.exit

76:                                               ; preds = %71
  %.not.i42 = icmp eq i32 %72, 0
  br i1 %.not.i42, label %lean_dec.exit, label %77

77:                                               ; preds = %76
  tail call void @lean_dec_ref_cold(ptr noundef nonnull %0) #4
  br label %lean_dec.exit

lean_dec.exit:                                    ; preds = %77, %76, %74, %lean_dec.exit26
  tail call void @lean_inc_heartbeat() #4
  %78 = tail call noalias ptr @mi_malloc_small(i64 noundef 24) #4
  %79 = icmp eq ptr %78, null
  br i1 %79, label %80, label %lean_alloc_ctor.exit

80:                                               ; preds = %lean_dec.exit
  tail call void @lean_internal_panic_out_of_memory() #5
  unreachable

lean_alloc_ctor.exit:                             ; preds = %lean_dec.exit
  %81 = getelementptr inbounds nuw i8, ptr %78, i64 4
  store i32 1, ptr %78, align 4, !tbaa !8
  store i32 131096, ptr %81, align 4
  %82 = getelementptr inbounds nuw i8, ptr %78, i64 8
  store ptr inttoptr (i64 3 to ptr), ptr %82, align 8, !tbaa !4
  %83 = getelementptr inbounds nuw i8, ptr %78, i64 16
  store ptr %7, ptr %83, align 8, !tbaa !4
  br label %84

84:                                               ; preds = %lean_alloc_ctor.exit, %12
  %.0 = phi ptr [ %13, %12 ], [ %78, %lean_alloc_ctor.exit ]
  ret ptr %.0
}